(dp1
I0
S'whale_14626'
p2
sI1
S'whale_83791'
p3
sI2
S'whale_88756'
p4
sI3
S'whale_61728'
p5
sI4
S'whale_89615'
p6
sI5
S'whale_90244'
p7
sI6
S'whale_38302'
p8
sI7
S'whale_39674'
p9
sI8
S'whale_73080'
p10
sI9
S'whale_87291'
p11
sI10
S'whale_98633'
p12
sI11
S'whale_73167'
p13
sI12
S'whale_04480'
p14
sI13
S'whale_35594'
p15
sI14
S'whale_22101'
p16
sI15
S'whale_28263'
p17
sI16
S'whale_36154'
p18
sI17
S'whale_23855'
p19
sI18
S'whale_33152'
p20
sI19
S'whale_64634'
p21
sI20
S'whale_88226'
p22
sI21
S'whale_02411'
p23
sI22
S'whale_51332'
p24
sI23
S'whale_06997'
p25
sI24
S'whale_38543'
p26
sI25
S'whale_97542'
p27
sI26
S'whale_78395'
p28
sI27
S'whale_90966'
p29
sI28
S'whale_11625'
p30
sI29
S'whale_41805'
p31
sI30
S'whale_73592'
p32
sI31
S'whale_85464'
p33
sI32
S'whale_64526'
p34
sI33
S'whale_65057'
p35
sI34
S'whale_78372'
p36
sI35
S'whale_03227'
p37
sI36
S'whale_63541'
p38
sI37
S'whale_60451'
p39
sI38
S'whale_77984'
p40
sI39
S'whale_47768'
p41
sI40
S'whale_09422'
p42
sI41
S'whale_23525'
p43
sI42
S'whale_86081'
p44
sI43
S'whale_03728'
p45
sI44
S'whale_52505'
p46
sI45
S'whale_38906'
p47
sI46
S'whale_16576'
p48
sI47
S'whale_91826'
p49
sI48
S'whale_58972'
p50
sI49
S'whale_45062'
p51
sI50
S'whale_43374'
p52
sI51
S'whale_33723'
p53
sI52
S'whale_90141'
p54
sI53
S'whale_81818'
p55
sI54
S'whale_61461'
p56
sI55
S'whale_58747'
p57
sI56
S'whale_10021'
p58
sI57
S'whale_08637'
p59
sI58
S'whale_41776'
p60
sI59
S'whale_08324'
p61
sI60
S'whale_35004'
p62
sI61
S'whale_12820'
p63
sI62
S'whale_16406'
p64
sI63
S'whale_89541'
p65
sI64
S'whale_35430'
p66
sI65
S'whale_51114'
p67
sI66
S'whale_45728'
p68
sI67
S'whale_88147'
p69
sI68
S'whale_48386'
p70
sI69
S'whale_26686'
p71
sI70
S'whale_34798'
p72
sI71
S'whale_43971'
p73
sI72
S'whale_94176'
p74
sI73
S'whale_40190'
p75
sI74
S'whale_24815'
p76
sI75
S'whale_21213'
p77
sI76
S'whale_64299'
p78
sI77
S'whale_03935'
p79
sI78
S'whale_08923'
p80
sI79
S'whale_72235'
p81
sI80
S'whale_61924'
p82
sI81
S'whale_74625'
p83
sI82
S'whale_18845'
p84
sI83
S'whale_23367'
p85
sI84
S'whale_90377'
p86
sI85
S'whale_48415'
p87
sI86
S'whale_90271'
p88
sI87
S'whale_99558'
p89
sI88
S'whale_49530'
p90
sI89
S'whale_58362'
p91
sI90
S'whale_63816'
p92
sI91
S'whale_24458'
p93
sI92
S'whale_15434'
p94
sI93
S'whale_37014'
p95
sI94
S'whale_66935'
p96
sI95
S'whale_40885'
p97
sI96
S'whale_16762'
p98
sI97
S'whale_10977'
p99
sI98
S'whale_22448'
p100
sI99
S'whale_65263'
p101
sI100
S'whale_86041'
p102
sI101
S'whale_46747'
p103
sI102
S'whale_02839'
p104
sI103
S'whale_11708'
p105
sI104
S'whale_12074'
p106
sI105
S'whale_32198'
p107
sI106
S'whale_00195'
p108
sI107
S'whale_38191'
p109
sI108
S'whale_54850'
p110
sI109
S'whale_82554'
p111
sI110
S'whale_09454'
p112
sI111
S'whale_27834'
p113
sI112
S'whale_33961'
p114
sI113
S'whale_87622'
p115
sI114
S'whale_57338'
p116
sI115
S'whale_68338'
p117
sI116
S'whale_85670'
p118
sI117
S'whale_96385'
p119
sI118
S'whale_95370'
p120
sI119
S'whale_49277'
p121
sI120
S'whale_58010'
p122
sI121
S'whale_69943'
p123
sI122
S'whale_22212'
p124
sI123
S'whale_29294'
p125
sI124
S'whale_89211'
p126
sI125
S'whale_20448'
p127
sI126
S'whale_78565'
p128
sI127
S'whale_17528'
p129
sI128
S'whale_49877'
p130
sI129
S'whale_88746'
p131
sI130
S'whale_51538'
p132
sI131
S'whale_73684'
p133
sI132
S'whale_74062'
p134
sI133
S'whale_45367'
p135
sI134
S'whale_52100'
p136
sI135
S'whale_67801'
p137
sI136
S'whale_24679'
p138
sI137
S'whale_41881'
p139
sI138
S'whale_98746'
p140
sI139
S'whale_75215'
p141
sI140
S'whale_80947'
p142
sI141
S'whale_43045'
p143
sI142
S'whale_65737'
p144
sI143
S'whale_64937'
p145
sI144
S'whale_82602'
p146
sI145
S'whale_54574'
p147
sI146
S'whale_45465'
p148
sI147
S'whale_42191'
p149
sI148
S'whale_98996'
p150
sI149
S'whale_00442'
p151
sI150
S'whale_55079'
p152
sI151
S'whale_68116'
p153
sI152
S'whale_55550'
p154
sI153
S'whale_38008'
p155
sI154
S'whale_40169'
p156
sI155
S'whale_36231'
p157
sI156
S'whale_18989'
p158
sI157
S'whale_08439'
p159
sI158
S'whale_18158'
p160
sI159
S'whale_74683'
p161
sI160
S'whale_48633'
p162
sI161
S'whale_14094'
p163
sI162
S'whale_76398'
p164
sI163
S'whale_33140'
p165
sI164
S'whale_34513'
p166
sI165
S'whale_23847'
p167
sI166
S'whale_70904'
p168
sI167
S'whale_81960'
p169
sI168
S'whale_26212'
p170
sI169
S'whale_74162'
p171
sI170
S'whale_75413'
p172
sI171
S'whale_84963'
p173
sI172
S'whale_49237'
p174
sI173
S'whale_19906'
p175
sI174
S'whale_74439'
p176
sI175
S'whale_54920'
p177
sI176
S'whale_21873'
p178
sI177
S'whale_26288'
p179
sI178
S'whale_34813'
p180
sI179
S'whale_08729'
p181
sI180
S'whale_09062'
p182
sI181
S'whale_13789'
p183
sI182
S'whale_03990'
p184
sI183
S'whale_03623'
p185
sI184
S'whale_47858'
p186
sI185
S'whale_24730'
p187
sI186
S'whale_66205'
p188
sI187
S'whale_05349'
p189
sI188
S'whale_44747'
p190
sI189
S'whale_36300'
p191
sI190
S'whale_41125'
p192
sI191
S'whale_88432'
p193
sI192
S'whale_49491'
p194
sI193
S'whale_04435'
p195
sI194
S'whale_88478'
p196
sI195
S'whale_07808'
p197
sI196
S'whale_37654'
p198
sI197
S'whale_11242'
p199
sI198
S'whale_64903'
p200
sI199
S'whale_37658'
p201
sI200
S'whale_09181'
p202
sI201
S'whale_97688'
p203
sI202
S'whale_56281'
p204
sI203
S'whale_28892'
p205
sI204
S'whale_66852'
p206
sI205
S'whale_49832'
p207
sI206
S'whale_66539'
p208
sI207
S'whale_98939'
p209
sI208
S'whale_92153'
p210
sI209
S'whale_13288'
p211
sI210
S'whale_21655'
p212
sI211
S'whale_68789'
p213
sI212
S'whale_47734'
p214
sI213
S'whale_80405'
p215
sI214
S'whale_23574'
p216
sI215
S'whale_11099'
p217
sI216
S'whale_64989'
p218
sI217
S'whale_78785'
p219
sI218
S'whale_58309'
p220
sI219
S'whale_37154'
p221
sI220
S'whale_78628'
p222
sI221
S'whale_59255'
p223
sI222
S'whale_55861'
p224
sI223
S'whale_75455'
p225
sI224
S'whale_82387'
p226
sI225
S'whale_86585'
p227
sI226
S'whale_48966'
p228
sI227
S'whale_22059'
p229
sI228
S'whale_75682'
p230
sI229
S'whale_82548'
p231
sI230
S'whale_27820'
p232
sI231
S'whale_16738'
p233
sI232
S'whale_89456'
p234
sI233
S'whale_23118'
p235
sI234
S'whale_67036'
p236
sI235
S'whale_17327'
p237
sI236
S'whale_72820'
p238
sI237
S'whale_32702'
p239
sI238
S'whale_29569'
p240
sI239
S'whale_52342'
p241
sI240
S'whale_44071'
p242
sI241
S'whale_98507'
p243
sI242
S'whale_10005'
p244
sI243
S'whale_52749'
p245
sI244
S'whale_12661'
p246
sI245
S'whale_27221'
p247
sI246
S'whale_38817'
p248
sI247
S'whale_30074'
p249
sI248
S'whale_66711'
p250
sI249
S'whale_94546'
p251
sI250
S'whale_15078'
p252
sI251
S'whale_15079'
p253
sI252
S'whale_13863'
p254
sI253
S'whale_97882'
p255
sI254
S'whale_97924'
p256
sI255
S'whale_21160'
p257
sI256
S'whale_09651'
p258
sI257
S'whale_98618'
p259
sI258
S'whale_48497'
p260
sI259
S'whale_45294'
p261
sI260
S'whale_83892'
p262
sI261
S'whale_37269'
p263
sI262
S'whale_74232'
p264
sI263
S'whale_39915'
p265
sI264
S'whale_17785'
p266
sI265
S'whale_64274'
p267
sI266
S'whale_04373'
p268
sI267
S'whale_65586'
p269
sI268
S'whale_73666'
p270
sI269
S'whale_58474'
p271
sI270
S'whale_32087'
p272
sI271
S'whale_99573'
p273
sI272
S'whale_86158'
p274
sI273
S'whale_74935'
p275
sI274
S'whale_73136'
p276
sI275
S'whale_02608'
p277
sI276
S'whale_80124'
p278
sI277
S'whale_11076'
p279
sI278
S'whale_47062'
p280
sI279
S'whale_08017'
p281
sI280
S'whale_47700'
p282
sI281
S'whale_67407'
p283
sI282
S'whale_19027'
p284
sI283
S'whale_27860'
p285
sI284
S'whale_83157'
p286
sI285
S'whale_69619'
p287
sI286
S'whale_62655'
p288
sI287
S'whale_34488'
p289
sI288
S'whale_92465'
p290
sI289
S'whale_81875'
p291
sI290
S'whale_53889'
p292
sI291
S'whale_64006'
p293
sI292
S'whale_98151'
p294
sI293
S'whale_79823'
p295
sI294
S'whale_71062'
p296
sI295
S'whale_17601'
p297
sI296
S'whale_14270'
p298
sI297
S'whale_59627'
p299
sI298
S'whale_17604'
p300
sI299
S'whale_20248'
p301
sI300
S'whale_95091'
p302
sI301
S'whale_34663'
p303
sI302
S'whale_48024'
p304
sI303
S'whale_92686'
p305
sI304
S'whale_04397'
p306
sI305
S'whale_92515'
p307
sI306
S'whale_60729'
p308
sI307
S'whale_66421'
p309
sI308
S'whale_64714'
p310
sI309
S'whale_53580'
p311
sI310
S'whale_06334'
p312
sI311
S'whale_06339'
p313
sI312
S'whale_86377'
p314
sI313
S'whale_04540'
p315
sI314
S'whale_13701'
p316
sI315
S'whale_88547'
p317
sI316
S'whale_86527'
p318
sI317
S'whale_84178'
p319
sI318
S'whale_36648'
p320
sI319
S'whale_35844'
p321
sI320
S'whale_67611'
p322
sI321
S'whale_82064'
p323
sI322
S'whale_67614'
p324
sI323
S'whale_79193'
p325
sI324
S'whale_87420'
p326
sI325
S'whale_71554'
p327
sI326
S'whale_38681'
p328
sI327
S'whale_46169'
p329
sI328
S'whale_22118'
p330
sI329
S'whale_79439'
p331
sI330
S'whale_90820'
p332
sI331
S'whale_28216'
p333
sI332
S'whale_07331'
p334
sI333
S'whale_06069'
p335
sI334
S'whale_15519'
p336
sI335
S'whale_75767'
p337
sI336
S'whale_29858'
p338
sI337
S'whale_53079'
p339
sI338
S'whale_23467'
p340
sI339
S'whale_38437'
p341
sI340
S'whale_67685'
p342
sI341
S'whale_07483'
p343
sI342
S'whale_11555'
p344
sI343
S'whale_79648'
p345
sI344
S'whale_90911'
p346
sI345
S'whale_52998'
p347
sI346
S'whale_05140'
p348
sI347
S'whale_75932'
p349
sI348
S'whale_79948'
p350
sI349
S'whale_87155'
p351
sI350
S'whale_38894'
p352
sI351
S'whale_26397'
p353
sI352
S'whale_57251'
p354
sI353
S'whale_82089'
p355
sI354
S'whale_69084'
p356
sI355
S'whale_08181'
p357
sI356
S'whale_87604'
p358
sI357
S'whale_12609'
p359
sI358
S'whale_96240'
p360
sI359
S'whale_36437'
p361
sI360
S'whale_49210'
p362
sI361
S'whale_76782'
p363
sI362
S'whale_31594'
p364
sI363
S'whale_05784'
p365
sI364
S'whale_52759'
p366
sI365
S'whale_26654'
p367
sI366
S'whale_35426'
p368
sI367
S'whale_29172'
p369
sI368
S'whale_25715'
p370
sI369
S'whale_70138'
p371
sI370
S'whale_50021'
p372
sI371
S'whale_25659'
p373
sI372
S'whale_25878'
p374
sI373
S'whale_10583'
p375
sI374
S'whale_74828'
p376
sI375
S'whale_34656'
p377
sI376
S'whale_79199'
p378
sI377
S'whale_28384'
p379
sI378
S'whale_99243'
p380
sI379
S'whale_43961'
p381
sI380
S'whale_86206'
p382
sI381
S'whale_79166'
p383
sI382
S'whale_88085'
p384
sI383
S'whale_51603'
p385
sI384
S'whale_72327'
p386
sI385
S'whale_27085'
p387
sI386
S'whale_22848'
p388
sI387
S'whale_54796'
p389
sI388
S'whale_90929'
p390
sI389
S'whale_36851'
p391
sI390
S'whale_07863'
p392
sI391
S'whale_06967'
p393
sI392
S'whale_51195'
p394
sI393
S'whale_90446'
p395
sI394
S'whale_54497'
p396
sI395
S'whale_14892'
p397
sI396
S'whale_49135'
p398
sI397
S'whale_80247'
p399
sI398
S'whale_39689'
p400
sI399
S'whale_81768'
p401
sI400
S'whale_90957'
p402
sI401
S'whale_81136'
p403
sI402
S'whale_69459'
p404
sI403
S'whale_63948'
p405
sI404
S'whale_33195'
p406
sI405
S'whale_39293'
p407
sI406
S'whale_78280'
p408
sI407
S'whale_03103'
p409
sI408
S'whale_30331'
p410
sI409
S'whale_05487'
p411
sI410
S'whale_68774'
p412
sI411
S'whale_48490'
p413
sI412
S'whale_59173'
p414
sI413
S'whale_31739'
p415
sI414
S'whale_41921'
p416
sI415
S'whale_55333'
p417
sI416
S'whale_23821'
p418
sI417
S'whale_32021'
p419
sI418
S'whale_40483'
p420
sI419
S'whale_37301'
p421
sI420
S'whale_12085'
p422
sI421
S'whale_48813'
p423
sI422
S'whale_43326'
p424
sI423
S'whale_60921'
p425
sI424
S'whale_44127'
p426
sI425
S'whale_66353'
p427
sI426
S'whale_77693'
p428
sI427
S'whale_09913'
p429
sI428
S'whale_97440'
p430
sI429
S'whale_89271'
p431
sI430
S'whale_44699'
p432
sI431
S'whale_08700'
p433
sI432
S'whale_19041'
p434
sI433
S'whale_61260'
p435
sI434
S'whale_05661'
p436
sI435
S'whale_95831'
p437
sI436
S'whale_84264'
p438
sI437
S'whale_46974'
p439
sI438
S'whale_22297'
p440
sI439
S'whale_99326'
p441
sI440
S'whale_81915'
p442
sI441
S'whale_15615'
p443
sI442
S'whale_98645'
p444
sI443
S'whale_64496'
p445
sI444
S'whale_07647'
p446
sI445
S'whale_38288'
p447
sI446
S'whale_62939'
p448
s.