(lp1
I367
aI267
aI359
aI404
aI61
aI178
aI3
aI324
aI378
aI328
aI144
aI423
aI263
aI13
aI163
aI347
aI70
aI310
aI124
aI235
aI288
aI303
aI277
aI240
aI112
aI433
aI401
aI275
aI217
aI355
aI274
aI308
aI254
aI351
aI190
aI328
aI79
aI373
aI350
aI278
aI136
aI175
aI124
aI432
aI136
aI300
aI292
aI403
aI124
aI268
aI139
aI340
aI423
aI196
aI236
aI94
aI165
aI237
aI145
aI282
aI190
aI432
aI421
aI165
aI9
aI399
aI170
aI151
aI268
aI272
aI37
aI15
aI367
aI241
aI220
aI370
aI316
aI40
aI105
aI35
aI324
aI113
aI360
aI136
aI49
aI162
aI400
aI181
aI13
aI183
aI236
aI190
aI366
aI371
aI261
aI387
aI425
aI156
aI5
aI252
aI142
aI13
aI407
aI27
aI130
aI391
aI248
aI357
aI412
aI90
aI109
aI217
aI256
aI109
aI342
aI52
aI306
aI355
aI371
aI290
aI243
aI327
aI91
aI86
aI87
aI443
aI165
aI275
aI352
aI159
aI129
aI290
aI160
aI283
aI324
aI401
aI116
aI24
aI413
aI254
aI316
aI275
aI153
aI185
aI272
aI294
aI260
aI91
aI197
aI198
aI174
aI57
aI44
aI52
aI61
aI141
aI88
aI32
aI118
aI127
aI242
aI368
aI342
aI3
aI364
aI80
aI60
aI268
aI121
aI169
aI408
aI354
aI42
aI341
aI331
aI355
aI209
aI415
aI10
aI243
aI419
aI232
aI227
aI230
aI247
aI227
aI121
aI359
aI184
aI62
aI413
aI241
aI44
aI366
aI206
aI221
aI401
aI112
aI126
aI443
aI373
aI318
aI86
aI181
aI241
aI134
aI326
aI382
aI268
aI325
aI426
aI48
aI311
aI348
aI72
aI206
aI214
aI129
aI180
aI443
aI131
aI81
aI275
aI24
aI181
aI400
aI202
aI331
aI291
aI360
aI224
aI283
aI373
aI266
aI227
aI335
aI165
aI24
aI275
aI261
aI15
aI37
aI146
aI177
aI272
aI265
aI332
aI292
aI307
aI207
aI373
aI443
aI278
aI414
aI199
aI148
aI352
aI207
aI324
aI212
aI445
aI42
aI291
aI197
aI335
aI408
aI278
aI431
aI5
aI249
aI185
aI399
aI335
aI18
aI288
aI167
aI398
aI331
aI366
aI5
aI378
aI400
aI91
aI267
aI335
aI311
aI69
aI73
aI177
aI272
aI18
aI355
aI1
aI30
aI266
aI275
aI72
aI210
aI390
aI6
aI170
aI407
aI45
aI45
aI197
aI13
aI92
aI305
aI298
aI155
aI118
aI73
aI227
aI261
aI109
aI387
aI79
aI169
aI324
aI55
aI365
aI335
aI59
aI87
aI400
aI354
aI296
aI86
aI230
aI443
aI222
aI159
aI325
aI355
aI92
aI299
aI114
aI398
aI45
aI379
aI368
aI413
aI146
aI195
aI53
aI171
aI145
aI144
aI161
aI357
aI415
aI279
aI435
aI421
aI314
aI350
aI177
aI324
aI324
aI23
aI405
aI371
aI181
aI275
aI382
aI310
aI387
aI358
aI117
aI203
aI387
aI118
aI193
aI89
aI239
aI69
aI271
aI65
aI198
aI369
aI31
aI391
aI119
aI275
aI303
aI207
aI362
aI361
aI366
aI405
aI307
aI349
aI399
aI331
aI376
aI262
aI232
aI249
aI443
aI152
aI115
aI159
aI91
aI33
aI412
aI410
aI419
aI129
aI248
aI97
aI272
aI257
aI298
aI301
aI174
aI246
aI90
aI399
aI213
aI128
aI421
aI48
aI21
aI197
aI237
aI278
aI407
aI24
aI423
aI326
aI91
aI292
aI118
aI118
aI258
aI34
aI18
aI352
aI83
aI439
aI340
aI137
aI392
aI167
aI136
aI435
aI58
aI324
aI239
aI144
aI355
aI203
aI445
aI415
aI137
aI399
aI139
aI130
aI300
aI90
aI408
aI132
aI56
aI293
aI152
aI42
aI177
aI421
aI277
aI241
aI118
aI273
aI277
aI1
aI85
aI198
aI262
aI220
aI124
aI162
aI287
aI121
aI361
aI247
aI3
aI70
aI124
aI381
aI101
aI210
aI406
aI285
aI91
aI171
aI298
aI360
aI391
aI224
aI177
aI166
aI277
aI342
aI425
aI402
aI13
aI21
aI367
aI200
aI217
aI11
aI163
aI355
aI223
aI318
aI35
aI16
aI10
aI118
aI441
aI426
aI70
aI400
aI155
aI278
aI136
aI243
aI321
aI289
aI176
aI213
aI404
aI439
aI366
aI356
aI169
aI261
aI104
aI144
aI103
aI278
aI75
aI184
aI407
aI444
aI80
aI202
aI241
aI114
aI355
aI148
aI167
aI349
aI118
aI72
aI416
aI70
aI241
aI235
aI219
aI155
aI435
aI287
aI305
aI346
aI210
aI202
aI444
aI343
aI228
aI126
aI27
aI77
aI235
aI163
aI55
aI303
aI213
aI356
aI224
aI169
aI319
aI8
aI93
aI91
aI85
aI210
aI0
aI404
aI95
aI315
aI24
aI270
aI413
aI97
aI414
aI42
aI186
aI398
aI186
aI177
aI257
aI345
aI108
aI379
aI202
aI79
aI263
aI374
aI124
aI329
aI151
aI9
aI119
aI425
aI350
aI291
aI132
aI215
aI223
aI224
aI236
aI425
aI214
aI197
aI414
aI173
aI408
aI271
aI379
aI154
aI93
aI401
aI431
aI389
aI87
aI296
aI220
aI414
aI223
aI216
aI153
aI444
aI417
aI3
aI152
aI404
aI261
aI103
aI421
aI434
aI400
aI360
aI121
aI275
aI146
aI142
aI432
aI100
aI202
aI137
aI270
aI142
aI179
aI61
aI117
aI118
aI204
aI446
aI91
aI300
aI434
aI72
aI155
aI354
aI408
aI445
aI296
aI232
aI185
aI91
aI60
aI252
aI9
aI75
aI405
aI270
aI277
aI262
aI335
aI377
aI121
aI373
aI367
aI325
aI324
aI57
aI147
aI414
aI439
aI190
aI355
aI405
aI298
aI259
aI257
aI203
aI45
aI382
aI127
aI232
aI276
aI240
aI227
aI313
aI203
aI318
aI37
aI32
aI280
aI64
aI157
aI168
aI286
aI230
aI240
aI382
aI8
aI49
aI280
aI257
aI187
aI103
aI302
aI119
aI401
aI62
aI60
aI238
aI378
aI309
aI136
aI151
aI59
aI283
aI264
aI23
aI240
aI368
aI363
aI316
aI212
aI46
aI75
aI331
aI269
aI158
aI265
aI347
aI361
aI113
aI247
aI45
aI360
aI212
aI77
aI149
aI142
aI183
aI189
aI307
aI86
aI108
aI100
aI209
aI323
aI127
aI31
aI156
aI5
aI17
aI79
aI156
aI34
aI425
aI307
aI431
aI184
aI396
aI202
aI224
aI241
aI397
aI165
aI202
aI395
aI296
aI116
aI114
aI291
aI420
aI258
aI92
aI248
aI42
aI75
aI298
aI158
aI273
aI86
aI188
aI266
aI119
aI292
aI42
aI420
aI443
aI324
aI340
aI348
aI118
aI158
aI415
aI153
aI240
aI434
aI46
aI2
aI118
aI340
aI278
aI161
aI49
aI442
aI294
aI183
aI325
aI405
aI329
aI332
aI266
aI142
aI421
aI42
aI272
aI130
aI130
aI151
aI209
aI217
aI389
aI350
aI210
aI355
aI35
aI248
aI31
aI59
aI370
aI268
aI275
aI291
aI65
aI52
aI27
aI348
aI33
aI16
aI435
aI105
aI425
aI345
aI270
aI371
aI146
aI410
aI317
aI124
aI48
aI231
aI285
aI109
aI55
aI9
aI19
aI34
aI408
aI291
aI426
aI398
aI434
aI128
aI342
aI116
aI177
aI211
aI47
aI18
aI387
aI347
aI104
aI21
aI121
aI321
aI266
aI270
aI277
aI158
aI401
aI298
aI72
aI265
aI55
aI72
aI268
aI175
aI111
aI436
aI146
aI104
aI130
aI213
aI367
aI124
aI100
aI294
aI390
aI331
aI35
aI265
aI241
aI258
aI298
aI62
aI8
aI399
aI305
aI101
aI109
aI316
aI98
aI362
aI396
aI71
aI373
aI64
aI326
aI303
aI328
aI85
aI128
aI5
aI414
aI9
aI112
aI146
aI126
aI37
aI70
aI183
aI220
aI420
aI247
aI277
aI104
aI411
aI79
aI329
aI171
aI338
aI262
aI368
aI238
aI21
aI97
aI120
aI264
aI444
aI77
aI87
aI360
aI288
aI368
aI382
aI303
aI166
aI405
aI345
aI145
aI56
aI222
aI88
aI405
aI349
aI50
aI45
aI152
aI372
aI30
aI398
aI405
aI124
aI370
aI237
aI310
aI163
aI32
aI266
aI5
aI390
aI199
aI324
aI273
aI309
aI55
aI441
aI362
aI171
aI172
aI152
aI400
aI262
aI258
aI441
aI65
aI403
aI76
aI397
aI258
aI13
aI93
aI418
aI118
aI101
aI248
aI197
aI316
aI265
aI119
aI281
aI63
aI425
aI13
aI103
aI2
aI250
aI307
aI291
aI58
aI367
aI300
aI379
aI138
aI16
aI257
aI297
aI171
aI352
aI162
aI30
aI356
aI356
aI342
aI247
aI56
aI238
aI9
aI202
aI32
aI224
aI333
aI265
aI363
aI315
aI345
aI62
aI370
aI189
aI180
aI143
aI319
aI173
aI151
aI345
aI93
aI19
aI363
aI359
aI437
aI235
aI127
aI374
aI32
aI298
aI23
aI403
aI186
aI57
aI81
aI137
aI368
aI355
aI165
aI14
aI308
aI407
aI116
aI37
aI128
aI89
aI203
aI236
aI319
aI392
aI246
aI324
aI341
aI16
aI158
aI199
aI370
aI13
aI373
aI108
aI16
aI373
aI157
aI98
aI421
aI331
aI118
aI124
aI80
aI324
aI390
aI262
aI408
aI200
aI390
aI234
aI18
aI399
aI137
aI237
aI387
aI209
aI83
aI88
aI425
aI426
aI144
aI277
aI368
aI116
aI256
aI192
aI294
aI105
aI413
aI312
aI287
aI407
aI85
aI359
aI263
aI394
aI323
aI272
aI261
aI178
aI314
aI284
aI410
aI398
aI99
aI376
aI29
aI85
aI153
aI391
aI19
aI132
aI147
aI324
aI132
aI56
aI443
aI21
aI342
aI330
aI305
aI341
aI318
aI230
aI85
aI217
aI127
aI342
aI275
aI433
aI110
aI293
aI72
aI249
aI280
aI319
aI349
aI343
aI52
aI202
aI119
aI183
aI142
aI404
aI19
aI352
aI295
aI277
aI210
aI313
aI94
aI46
aI55
aI292
aI151
aI259
aI129
aI294
aI144
aI177
aI431
aI32
aI399
aI345
aI79
aI413
aI224
aI300
aI381
aI118
aI272
aI370
aI221
aI50
aI223
aI109
aI202
aI224
aI155
aI173
aI189
aI342
aI390
aI86
aI121
aI250
aI379
aI352
aI141
aI411
aI442
aI277
aI190
aI264
aI120
aI283
aI424
aI144
aI347
aI103
aI287
aI149
aI265
aI137
aI268
aI415
aI100
aI221
aI405
aI112
aI217
aI146
aI192
aI101
aI291
aI219
aI272
aI213
aI352
aI287
aI19
aI55
aI379
aI202
aI367
aI212
aI375
aI30
aI390
aI223
aI300
aI144
aI442
aI241
aI355
aI250
aI46
aI277
aI387
aI195
aI377
aI375
aI20
aI15
aI409
aI101
aI241
aI16
aI215
aI401
aI413
aI5
aI128
aI307
aI151
aI26
aI345
aI200
aI185
aI379
aI30
aI299
aI222
aI5
aI37
aI168
aI133
aI407
aI241
aI395
aI46
aI120
aI62
aI51
aI45
aI404
aI245
aI214
aI410
aI203
aI300
aI32
aI127
aI426
aI91
aI349
aI412
aI327
aI277
aI200
aI293
aI359
aI5
aI446
aI24
aI254
aI144
aI268
aI272
aI309
aI250
aI345
aI285
aI229
aI163
aI338
aI13
aI300
aI149
aI200
aI377
aI311
aI270
aI152
aI259
aI278
aI444
aI318
aI241
aI154
aI234
aI436
aI190
aI129
aI26
aI175
aI108
aI275
aI91
aI280
aI91
aI376
aI277
aI307
aI316
aI262
aI387
aI197
aI265
aI9
aI399
aI219
aI381
aI121
aI290
aI316
aI258
aI137
aI257
aI86
aI72
aI369
aI307
aI104
aI431
aI404
aI373
aI105
aI157
aI437
aI293
aI399
aI132
aI262
aI234
aI280
aI75
aI413
aI181
aI278
aI157
aI436
aI118
aI103
aI181
aI399
aI355
aI118
aI409
aI421
aI255
aI347
aI130
aI283
aI44
aI202
aI198
aI5
aI385
aI118
aI235
aI352
aI396
aI280
aI210
aI390
aI155
aI247
aI85
aI175
aI60
aI345
aI255
aI399
aI50
aI128
aI124
aI70
aI197
aI230
aI349
aI241
aI314
aI234
aI331
aI72
aI400
aI421
aI396
aI308
aI362
aI144
aI158
aI428
aI234
aI253
aI129
aI379
aI176
aI255
aI291
aI296
aI275
aI277
aI296
aI315
aI445
aI378
aI387
aI23
aI318
aI394
aI158
aI118
aI194
aI219
aI146
aI118
aI437
aI8
aI261
aI245
aI165
aI436
aI5
aI359
aI427
aI423
aI370
aI163
aI400
aI220
aI90
aI165
aI57
aI443
aI124
aI59
aI24
aI60
aI291
aI396
aI154
aI172
aI146
aI41
aI337
aI421
aI198
aI34
aI220
aI198
aI416
aI309
aI441
aI68
aI19
aI340
aI139
aI158
aI421
aI214
aI142
aI127
aI434
aI118
aI181
aI324
aI131
aI396
aI190
aI272
aI442
aI396
aI405
aI372
aI354
aI413
aI88
aI426
aI93
aI54
aI349
aI289
aI57
aI32
aI409
aI32
aI289
aI25
aI263
aI334
aI364
aI426
aI173
aI152
aI404
aI59
aI145
aI335
aI371
aI262
aI332
aI243
aI87
aI285
aI350
aI60
aI369
aI118
aI436
aI87
aI173
aI291
aI139
aI347
aI230
aI8
aI211
aI382
aI207
aI374
aI308
aI369
aI348
aI363
aI33
aI64
aI6
aI321
aI324
aI382
aI242
aI151
aI80
aI250
aI143
aI247
aI272
aI375
aI345
aI217
aI307
aI190
aI306
aI143
aI283
aI293
aI347
aI378
aI118
aI380
aI119
aI219
aI144
aI156
aI9
aI209
aI287
aI219
aI411
aI215
aI227
aI394
aI45
aI379
aI280
aI184
aI38
aI254
aI386
aI387
aI246
aI112
aI10
aI152
aI247
aI118
aI361
aI197
aI5
aI241
aI399
aI32
aI411
aI284
aI258
aI180
aI334
aI324
aI163
aI267
aI336
aI342
aI361
aI442
aI441
aI118
aI202
aI111
aI232
aI310
aI54
aI44
aI101
aI230
aI215
aI267
aI132
aI355
aI328
aI266
aI200
aI233
aI421
aI188
aI344
aI132
aI200
aI98
aI362
aI55
aI391
aI32
aI13
aI342
aI260
aI324
aI32
aI24
aI223
aI166
aI288
aI293
aI70
aI291
aI368
aI402
aI198
aI127
aI171
aI154
aI220
aI262
aI24
aI261
aI347
aI307
aI181
aI258
aI279
aI405
aI59
aI86
aI212
aI3
aI230
aI283
aI396
aI367
aI403
aI240
aI156
aI192
aI131
aI197
aI419
aI324
aI224
aI24
aI10
aI379
aI335
aI76
aI358
aI237
aI391
aI160
aI202
aI167
aI118
aI159
aI254
aI318
aI6
aI381
aI198
aI16
aI407
aI251
aI84
aI221
aI439
aI9
aI17
aI435
aI309
aI202
aI30
aI360
aI136
aI405
aI270
aI427
aI127
aI104
aI88
aI126
aI16
aI5
aI396
aI139
aI55
aI362
aI97
aI353
aI108
aI152
aI227
aI109
aI368
aI73
aI314
aI411
aI269
aI214
aI218
aI237
aI255
aI265
aI87
aI86
aI68
aI211
aI300
aI408
aI342
aI402
aI254
aI265
aI434
aI425
aI268
aI314
aI346
aI295
aI308
aI42
aI184
aI367
aI250
aI197
aI297
aI78
aI366
aI133
aI82
aI390
aI124
aI8
aI360
aI258
aI5
aI428
aI91
aI288
aI381
aI169
aI27
aI318
aI396
aI314
aI190
aI91
aI263
aI412
aI225
aI35
aI257
aI421
aI174
aI287
aI60
aI307
aI377
aI199
aI52
aI328
aI275
aI75
aI85
aI425
aI151
aI154
aI129
aI446
aI62
aI429
aI238
aI378
aI260
aI139
aI257
aI119
aI414
aI334
aI343
aI141
aI291
aI421
aI350
aI174
aI415
aI26
aI129
aI290
aI203
aI196
aI114
aI325
aI224
aI60
aI349
aI347
aI108
aI331
aI311
aI370
aI381
aI60
aI89
aI70
aI288
aI338
aI52
aI95
aI125
aI144
aI61
aI338
aI232
aI45
aI64
aI155
aI204
aI310
aI59
aI48
aI100
aI58
aI89
aI89
aI366
aI166
aI353
aI397
aI364
aI51
aI185
aI419
aI196
aI91
aI181
aI196
aI147
aI266
aI197
aI9
aI128
aI207
aI30
aI254
aI235
aI432
aI278
aI221
aI216
aI397
aI290
aI340
aI215
aI310
aI254
aI157
aI134
aI124
aI139
aI219
aI194
aI34
aI321
aI15
aI399
aI61
aI46
aI186
aI163
aI130
aI308
aI243
aI423
aI322
aI296
aI108
aI391
aI408
aI421
aI21
aI50
aI19
aI445
aI134
aI393
aI287
aI285
aI433
aI387
aI295
aI156
aI5
aI15
aI341
aI177
aI29
aI145
aI445
aI85
aI234
aI227
aI72
aI56
aI89
aI416
aI32
aI316
aI151
aI416
aI141
aI250
aI101
aI352
aI62
aI397
aI127
aI255
aI223
aI133
aI218
aI100
aI261
aI87
aI334
aI145
aI306
aI375
aI389
aI135
aI399
aI61
aI273
aI388
aI91
aI106
aI140
aI366
aI31
aI199
aI118
aI150
aI94
aI232
aI262
aI402
aI42
aI341
aI122
aI157
aI266
aI88
aI232
aI237
aI236
aI314
aI65
aI40
aI157
aI194
aI109
aI215
aI353
aI443
aI436
aI103
aI35
aI324
aI370
aI32
aI251
aI298
aI349
aI379
aI234
aI387
aI324
aI426
aI446
aI444
aI87
aI264
aI378
aI197
aI232
aI224
aI413
aI118
aI327
aI18
aI125
aI224
aI216
aI26
aI136
aI182
aI87
aI75
aI138
aI357
aI45
aI324
aI14
aI90
aI45
aI27
aI364
aI288
aI259
aI24
aI411
aI219
aI144
aI9
aI3
aI142
aI325
aI154
aI175
aI345
aI170
aI174
aI19
aI247
aI443
aI8
aI19
aI238
aI289
aI228
aI311
aI39
aI190
aI3
aI157
aI395
aI189
aI151
aI76
aI262
aI182
aI236
aI423
aI328
aI21
aI343
aI91
aI317
aI352
aI116
aI308
aI222
aI199
aI125
aI396
aI91
aI156
aI295
aI434
aI59
aI362
aI211
aI444
aI238
aI190
aI212
aI285
aI19
aI285
aI59
aI342
aI216
aI434
aI79
aI157
aI387
aI6
aI18
aI227
aI154
aI335
aI425
aI324
aI338
aI242
aI24
aI368
aI354
aI331
aI118
aI58
aI177
aI153
aI119
aI60
aI224
aI119
aI415
aI214
aI42
aI310
aI167
aI103
aI11
aI185
aI375
aI373
aI405
aI375
aI250
aI118
aI50
aI342
aI342
aI103
aI407
aI45
aI350
aI75
aI436
aI184
aI124
aI285
aI137
aI55
aI30
aI312
aI26
aI5
aI351
aI169
aI136
aI318
aI324
aI117
aI207
aI202
aI394
aI407
aI138
aI177
aI236
aI396
aI115
aI63
aI405
aI414
aI347
aI326
aI202
aI101
aI232
aI116
aI369
aI257
aI283
aI338
aI214
aI93
aI244
aI82
aI113
aI154
aI118
aI169
aI189
aI266
aI398
aI85
aI105
aI214
aI401
aI241
aI108
aI136
aI34
aI362
aI230
aI269
aI119
aI296
aI241
aI324
aI370
aI195
aI424
aI195
aI95
aI219
aI218
aI98
aI342
aI414
aI91
aI103
aI275
aI54
aI133
aI387
aI213
aI44
aI217
aI86
aI235
aI119
aI64
aI84
aI128
aI262
aI193
aI111
aI98
aI124
aI8
aI401
aI80
aI288
aI109
aI229
aI235
aI158
aI157
aI189
aI394
aI412
aI227
aI269
aI158
aI50
aI387
aI197
aI3
aI392
aI355
aI118
aI411
aI407
aI21
aI309
aI139
aI288
aI32
aI265
aI411
aI387
aI407
aI361
aI71
aI434
aI55
aI283
aI239
aI238
aI116
aI131
aI37
aI16
aI345
aI355
aI4
aI268
aI115
aI426
aI360
aI408
aI54
aI33
aI405
aI182
aI32
aI229
aI165
aI86
aI300
aI426
aI394
aI311
aI328
aI194
aI396
aI9
aI257
aI203
aI353
aI265
aI93
aI49
aI269
aI426
aI200
aI14
aI377
aI50
aI107
aI294
aI100
aI105
aI57
aI132
aI163
aI265
aI328
aI227
aI5
aI142
aI138
aI367
aI337
aI366
aI275
aI301
aI261
aI445
aI18
aI234
aI360
aI424
aI316
aI136
aI348
aI445
aI146
aI437
aI257
aI323
aI163
aI425
aI172
aI15
aI110
aI31
aI302
aI139
aI19
aI317
aI34
aI140
aI370
aI194
aI35
aI183
aI75
aI19
aI423
aI438
aI401
aI177
aI157
aI155
aI266
aI58
aI96
aI88
aI232
aI237
aI104
aI350
aI236
aI314
aI65
aI13
aI194
aI40
aI371
aI157
aI194
aI118
aI5
aI183
aI109
aI215
aI353
aI443
aI436
aI103
aI357
aI394
aI35
aI146
aI324
aI185
aI24
aI370
aI408
aI32
aI340
aI411
aI251
aI366
aI98
aI266
aI298
aI349
aI197
aI379
aI234
aI387
aI324
aI324
aI283
aI214
aI152
aI426
aI416
aI446
aI87
aI324
aI444
aI87
aI264
aI90
aI378
aI197
aI373
aI124
aI232
aI224
aI222
aI413
aI118
aI58
aI327
aI345
aI144
aI18
aI409
aI125
aI127
aI224
aI216
aI26
aI300
aI239
aI374
aI136
aI182
aI87
aI75
aI434
aI138
aI154
aI357
aI62
aI411
aI203
aI45
aI171
aI278
aI324
aI216
aI14
aI90
aI45
aI17
aI36
aI388
aI2
aI130
aI149
aI395
aI84
aI350
aI27
aI364
aI288
aI90
aI261
aI88
aI155
aI259
aI24
aI441
aI411
aI219
aI408
aI144
aI135
aI70
aI190
aI445
aI259
aI13
aI45
aI9
aI259
aI3
aI133
aI142
aI207
aI325
aI421
aI72
aI154
aI175
aI71
aI99
aI31
aI345
aI1
aI170
aI249
aI213
aI174
aI19
aI342
aI247
aI119
aI137
aI55
aI443
aI8
aI19
aI238
aI289
aI228
aI311
aI347
aI39
aI190
aI3
aI157
aI395
aI136
aI81
aI189
aI177
aI151
aI234
aI76
aI262
aI182
aI236
aI59
aI423
aI256
aI328
aI137
aI257
aI146
aI279
aI57
aI21
aI129
aI343
aI91
aI296
aI98
aI277
aI230
aI71
aI64
aI90
aI89
aI146
aI432
aI373
aI91
aI97
aI145
aI389
aI398
aI363
aI144
aI300
aI390
aI427
aI18
aI88
aI278
aI257
aI298
aI318
aI202
aI94
aI363
aI165
aI438
aI124
aI54
aI376
aI262
aI157
aI195
aI290
aI81
aI291
aI151
aI387
aI17
aI399
aI442
aI205
aI288
aI139
aI290
aI217
aI200
aI228
aI399
aI335
aI18
aI407
aI387
aI384
aI362
aI340
aI351
aI394
aI239
aI410
aI68
aI300
aI247
aI270
aI56
aI46
aI277
aI441
aI432
aI29
aI272
aI136
aI45
aI372
aI171
aI280
aI370
aI310
aI397
aI254
aI236
aI388
aI25
aI14
aI405
aI139
aI200
aI219
aI214
aI390
aI227
aI42
aI426
aI315
aI417
aI417
aI197
aI176
aI310
aI234
aI248
aI338
aI410
aI257
aI432
aI19
aI91
aI338
aI133
aI127
aI399
aI204
aI222
aI342
aI119
aI118
aI390
aI118
aI107
aI56
aI35
aI339
aI13
aI160
aI355
aI290
aI154
aI394
aI362
aI107
aI254
aI100
aI136
aI391
aI174
aI166
aI132
aI266
aI411
aI340
aI244
aI268
aI373
aI140
aI214
aI174
aI332
aI118
aI60
aI224
aI425
aI61
aI68
aI241
aI80
aI400
aI141
aI368
aI145
aI309
aI269
aI223
aI202
aI293
aI232
aI402
aI42
aI312
aI442
aI254
aI173
aI150
aI290
aI249
aI305
aI227
aI121
aI295
aI6
aI396
aI215
aI423
aI206
aI42
aI340
aI196
aI277
aI224
aI432
aI90
aI76
aI435
aI215
aI236
aI421
aI90
aI133
aI55
aI27
aI368
aI359
aI352
aI288
aI397
aI338
aI61
aI92
aI55
aI52
aI193
aI244
aI49
aI19
aI83
aI292
aI314
aI72
aI151
aI203
aI204
aI78
aI431
aI234
aI285
aI426
aI355
aI376
aI359
aI399
aI279
aI235
aI243
aI302
aI129
aI35
aI158
aI365
aI250
aI137
aI72
aI75
aI250
aI100
aI240
aI241
aI198
aI266
aI5
aI202
aI236
aI444
aI86
aI287
aI197
aI387
aI432
aI203
aI307
aI395
aI377
aI46
aI387
aI292
aI387
aI198
aI391
aI432
aI98
aI108
aI262
aI247
aI401
aI254
aI354
aI290
aI315
aI141
aI181
aI296
aI431
aI219
aI322
aI197
aI172
aI407
aI353
aI314
aI188
aI296
aI425
aI217
aI401
aI129
aI324
aI438
aI228
aI324
aI127
aI1
aI311
aI438
aI285
aI254
aI185
aI255
aI328
aI265
aI142
aI265
aI314
aI234
aI128
aI56
aI234
aI247
aI92
aI272
aI227
aI25
aI25
aI375
aI247
aI75
aI338
aI411
aI425
aI68
aI360
aI180
aI349
aI152
aI431
aI425
aI109
aI387
aI241
aI51
aI373
aI445
aI221
aI423
aI174
aI30
aI277
aI235
aI225
aI360
aI439
aI203
aI86
aI397
aI272
aI409
aI254
aI360
aI234
aI71
aI146
aI391
aI98
aI402
aI298
aI247
aI288
aI331
aI273
aI181
aI105
aI5
aI298
aI272
aI200
aI434
aI199
aI248
aI314
aI433
aI353
aI113
aI310
aI311
aI202
aI218
aI279
aI38
aI323
aI431
aI98
aI401
aI274
aI207
aI335
aI373
aI246
aI261
aI202
aI155
aI388
aI136
aI361
aI67
aI412
aI417
aI6
aI216
aI442
aI158
aI266
aI333
aI387
aI258
aI220
aI69
aI82
aI401
aI207
aI373
aI31
aI104
aI177
aI73
aI298
aI177
aI424
aI118
aI226
aI284
aI373
aI298
aI327
aI254
aI191
aI259
aI28
aI26
aI340
aI213
aI89
aI77
aI144
aI154
aI141
aI74
aI286
aI38
aI213
aI71
aI73
aI212
aI354
aI23
aI296
aI145
aI141
aI163
aI350
aI91
aI148
aI382
aI369
aI0
aI197
aI86
aI206
aI203
aI426
aI68
aI262
aI91
aI396
aI347
aI174
aI381
aI423
aI118
aI217
aI211
aI202
aI3
aI315
aI75
aI422
aI240
aI82
aI84
aI193
aI419
aI195
aI85
aI245
aI4
aI370
aI149
aI124
aI146
aI419
aI68
aI371
aI213
aI200
aI13
aI397
aI174
aI268
aI89
aI68
aI311
aI259
aI151
aI154
aI293
aI234
aI84
aI234
aI152
aI320
aI152
aI268
aI181
aI141
aI336
aI10
aI271
aI207
aI405
aI34
aI415
aI163
aI131
aI421
aI16
aI254
aI93
aI67
aI76
aI154
aI81
aI318
aI212
aI387
aI142
aI202
aI325
aI421
aI227
aI281
aI291
aI310
aI399
aI31
aI32
aI35
aI436
aI370
aI355
aI91
aI259
aI305
aI310
aI219
aI125
aI375
aI267
aI246
aI300
aI282
aI374
aI217
aI202
aI280
aI116
aI360
aI210
aI5
aI90
aI269
aI187
aI291
aI426
aI112
aI55
aI354
aI247
aI118
aI211
aI77
aI411
aI291
aI98
aI29
aI46
aI298
aI119
aI155
aI370
aI239
aI258
aI199
aI118
aI120
aI354
aI7
aI382
aI399
aI32
aI284
aI185
aI223
aI411
aI342
aI291
aI268
aI56
aI265
aI279
aI427
aI14
aI175
aI42
aI137
aI388
aI173
aI106
aI30
aI358
aI220
aI227
aI378
aI312
aI334
aI308
aI335
aI122
aI165
aI237
aI324
aI154
aI59
aI138
aI433
aI249
aI57
aI126
aI70
aI55
aI81
aI152
aI331
aI215
aI10
aI117
aI277
aI132
aI434
aI185
aI302
aI152
aI66
aI283
aI323
aI85
aI94
aI1
aI181
aI199
aI277
aI35
aI258
aI106
aI14
aI57
aI186
aI225
aI250
aI3
aI32
aI242
aI42
aI63
aI26
aI12
aI6
aI277
aI415
aI420
aI443
aI130
aI432
aI154
aI196
aI266
aI335
aI34
aI232
aI109
aI445
aI442
aI360
aI32
aI324
aI48
aI139
aI105
aI358
aI265
aI252
aI315
aI224
aI398
aI399
aI55
aI183
aI405
aI139
aI300
aI269
aI232
aI415
aI296
aI81
aI391
aI196
aI445
aI271
aI318
aI200
aI439
aI294
aI52
aI97
aI354
aI307
aI371
aI371
aI24
aI185
aI395
aI235
aI290
aI214
aI70
aI410
aI316
aI409
aI19
aI394
aI241
aI108
aI331
aI362
aI405
aI287
aI269
aI177
aI420
aI219
aI421
aI108
aI355
aI171
aI213
aI381
aI238
aI193
aI124
aI216
aI415
aI203
aI102
aI431
aI102
aI272
aI172
aI291
aI145
aI149
aI129
aI266
aI210
aI81
aI248
aI310
aI239
aI361
aI419
aI15
aI297
aI407
aI310
aI144
aI74
aI73
aI227
aI407
aI446
aI24
aI120
aI68
aI59
aI32
aI250
aI172
aI222
aI65
aI325
aI87
aI26
aI146
aI372
aI335
aI75
aI367
aI265
aI307
aI49
aI423
aI382
aI13
aI13
aI349
aI50
aI58
aI311
aI293
aI114
aI42
aI367
aI423
aI42
aI315
aI294
aI275
aI259
aI1
aI111
aI214
aI275
aI398
aI340
aI126
aI273
aI109
aI229
aI235
aI226
aI232
aI257
aI399
aI294
aI141
aI216
aI198
aI391
aI318
aI32
aI387
aI395
aI119
aI388
aI365
aI241
aI72
aI251
aI314
aI291
aI222
aI8
aI298
aI82
aI105
aI111
aI18
aI17
aI443
aI138
aI362
aI340
aI155
aI254
aI328
aI136
aI211
aI118
aI309
aI7
aI345
aI152
aI265
aI280
aI33
aI45
aI367
aI98
aI271
aI373
aI366
aI354
aI279
aI335
aI16
aI77
aI62
aI356
aI290
aI278
aI443
aI42
aI9
aI415
aI5
aI165
aI118
aI347
aI415
aI93
aI198
aI151
aI134
aI354
aI399
aI268
aI118
aI156
aI126
aI383
aI298
aI118
aI147
aI1
aI158
aI286
aI35
aI349
aI93
aI398
aI130
aI166
aI147
aI85
aI199
aI399
aI425
aI258
aI264
aI70
aI190
aI417
aI367
aI355
aI63
aI223
aI90
aI72
aI343
aI24
aI423
aI224
aI263
aI171
aI263
aI331
aI144
aI35
aI64
aI307
aI256
aI219
aI204
aI174
aI266
aI224
aI333
aI327
aI156
aI144
aI346
aI195
aI221
aI328
aI287
aI294
aI94
aI9
aI6
aI87
aI79
aI230
aI407
aI202
aI285
aI444
aI201
aI91
aI185
aI409
aI217
aI324
aI52
aI230
aI142
aI327
aI103
aI97
aI157
aI145
aI189
aI87
aI361
aI170
aI127
aI296
aI30
aI204
aI311
aI9
aI85
aI231
aI304
aI367
aI232
aI415
aI38
aI334
aI54
aI124
aI85
aI188
aI314
aI203
aI127
aI193
aI349
aI285
aI265
aI246
aI198
aI327
aI153
aI210
aI368
aI324
aI277
aI235
aI318
aI417
aI217
aI399
aI292
aI97
aI318
aI270
aI85
aI194
aI153
aI78
aI402
aI32
aI114
aI321
aI303
aI227
aI48
aI139
aI30
aI174
aI304
aI394
aI296
aI347
aI9
aI298
aI367
aI90
aI144
aI263
aI150
aI103
aI350
aI72
aI396
aI256
aI196
aI177
aI405
aI445
aI234
aI382
aI433
aI259
aI241
aI259
aI303
aI9
aI423
aI426
aI432
aI211
aI125
aI355
aI189
aI163
aI261
aI432
aI352
aI325
aI89
aI140
aI106
aI6
aI140
aI444
aI90
aI139
aI275
aI6
aI2
aI151
aI61
aI133
aI37
aI255
aI398
aI63
aI49
aI25
aI137
aI203
aI106
aI89
aI33
aI233
aI57
aI204
aI396
aI215
aI368
aI21
aI87
aI241
aI357
aI417
aI184
aI105
aI261
aI203
aI91
aI347
aI196
aI324
aI127
aI375
aI261
aI328
aI402
aI104
aI153
aI169
aI438
aI222
aI366
aI117
aI215
aI266
aI27
aI227
aI26
aI247
aI402
aI400
aI49
aI338
aI354
aI8
aI187
aI382
aI13
aI71
aI261
aI197
aI177
aI50
aI133
aI345
aI362
aI442
aI318
aI76
aI45
aI314
aI118
aI42
aI207
aI79
aI387
aI264
aI316
aI167
aI321
aI381
aI373
aI399
aI171
aI315
aI98
aI367
aI187
aI345
aI62
aI209
aI366
aI106
aI141
aI241
aI177
aI113
aI142
aI193
aI324
aI98
aI306
aI234
aI415
aI300
aI324
aI296
aI407
aI260
aI261
aI156
aI175
aI354
aI398
aI139
aI257
aI62
aI359
aI415
aI350
aI362
aI149
aI210
aI266
aI263
aI320
aI339
aI399
aI31
aI46
aI10
aI395
aI370
aI155
aI145
aI442
aI126
aI335
aI420
aI63
aI190
aI362
aI81
aI112
aI115
aI203
aI347
aI46
aI113
aI32
aI58
aI303
aI259
aI153
aI132
aI392
aI308
aI144
aI218
aI110
aI151
aI305
aI222
aI54
aI324
aI349
aI289
aI265
aI57
aI32
aI289
aI63
aI348
aI394
aI409
aI32
aI289
aI42
aI25
aI423
aI263
aI334
aI436
aI310
aI95
aI364
aI426
aI173
aI422
aI152
aI373
aI404
aI59
aI145
aI335
aI132
aI419
aI371
aI227
aI262
aI332
aI243
aI5
aI87
aI285
aI266
aI350
aI60
aI369
aI118
aI118
aI437
aI436
aI136
aI425
aI87
aI173
aI291
aI312
aI139
aI154
aI15
aI100
aI175
aI366
aI93
aI347
aI275
aI230
aI8
aI308
aI288
aI109
aI211
aI49
aI296
aI382
aI373
aI293
aI207
aI299
aI374
aI75
aI300
aI16
aI181
aI308
aI91
aI115
aI350
aI148
aI174
aI369
aI345
aI363
aI33
aI64
aI6
aI321
aI167
aI19
aI324
aI388
aI140
aI382
aI408
aI290
aI197
aI242
aI396
aI151
aI352
aI80
aI250
aI234
aI24
aI143
aI398
aI247
aI46
aI272
aI425
aI375
aI291
aI345
aI18
aI373
aI217
aI307
aI190
aI306
aI48
aI143
aI283
aI124
aI206
aI105
aI295
aI293
aI347
aI395
aI378
aI59
aI167
aI118
aI380
aI30
aI31
aI404
aI119
aI219
aI144
aI156
aI9
aI27
aI133
aI209
aI287
aI219
aI259
aI411
aI245
aI331
aI215
aI227
aI394
aI45
aI379
aI167
aI280
aI428
aI184
aI117
aI38
aI382
aI425
aI7
aI48
aI118
aI181
aI246
aI254
aI386
aI119
aI387
aI390
aI390
aI246
aI112
aI10
aI240
aI366
aI266
aI220
aI152
aI402
aI247
aI118
aI361
aI197
aI224
aI397
aI152
aI273
aI259
aI152
aI350
aI296
aI232
aI404
aI165
aI90
aI152
aI96
aI30
aI391
aI298
aI399
aI163
aI127
aI340
aI155
aI259
aI426
aI130
aI64
aI360
aI211
aI352
aI32
aI250
aI22
aI342
aI435
aI52
aI109
aI116
aI61
aI342
aI144
aI277
aI356
aI151
aI266
aI310
aI45
aI144
aI404
aI316
aI387
aI214
aI379
aI246
aI254
aI293
aI284
aI375
aI118
aI411
aI46
aI112
aI287
aI84
aI141
aI425
aI3
aI203
aI18
aI75
aI121
aI128
aI400
aI4
aI211
aI91
aI75
aI430
aI199
aI400
aI421
aI316
aI444
aI445
aI401
aI411
aI218
aI296
aI188
aI259
aI193
aI241
aI65
aI27
aI236
aI223
aI291
aI155
aI277
aI42
aI186
aI232
aI235
aI45
aI25
aI42
aI444
aI199
aI292
aI222
aI421
aI30
aI48
aI126
aI114
aI310
aI117
aI386
aI262
aI65
aI50
aI160
aI348
aI423
aI265
aI23
aI32
aI78
aI324
aI164
aI338
aI443
aI365
aI140
aI424
aI196
aI227
aI350
aI223
aI257
aI155
aI193
aI27
aI410
aI63
aI407
aI259
aI261
aI377
aI416
aI234
aI37
aI210
aI324
aI171
aI417
aI352
aI93
aI144
aI321
aI218
aI129
aI241
aI251
aI35
aI307
aI100
aI359
aI174
aI408
aI367
aI237
aI33
aI197
aI236
aI332
aI247
aI232
aI267
aI425
aI230
aI261
aI413
aI411
aI207
aI250
aI387
aI97
aI44
aI133
aI163
aI441
aI86
aI92
aI97
aI62
aI229
aI85
aI359
aI434
aI222
aI419
aI144
aI222
aI308
aI235
aI285
aI259
aI118
aI315
aI308
aI166
aI306
aI300
aI129
aI215
aI170
aI222
aI91
aI9
aI100
aI6
aI268
aI304
aI177
aI391
aI147
aI403
aI342
aI170
aI368
aI436
aI166
aI232
aI293
aI21
aI293
aI324
aI189
aI183
aI185
aI90
aI314
aI405
aI58
aI19
aI390
aI151
aI275
aI9
aI370
aI113
aI254
aI75
aI320
aI311
aI391
aI77
aI271
aI406
aI13
aI268
aI8
aI416
aI389
aI435
aI88
aI169
aI368
aI442
aI302
aI354
aI133
aI246
aI123
aI156
aI356
aI395
aI159
aI284
aI296
aI266
aI265
aI415
aI280
aI305
aI401
aI310
aI76
aI287
aI72
aI82
aI210
aI132
aI354
aI44
aI156
aI221
aI128
aI298
aI103
aI249
aI246
aI397
aI268
aI371
aI298
aI238
aI319
aI350
aI414
aI71
aI34
aI106
aI33
aI202
aI394
aI32
aI262
aI445
aI147
aI230
aI443
aI277
aI399
aI430
aI335
aI304
aI270
aI203
aI262
aI88
aI272
aI102
aI297
aI244
aI163
aI98
aI152
aI303
aI410
aI312
aI294
aI190
aI387
aI332
aI198
aI300
aI294
aI325
aI212
aI68
aI113
aI174
aI148
aI210
aI158
aI53
aI200
aI415
aI104
aI405
aI402
aI423
aI318
aI242
aI43
aI158
aI143
aI144
aI362
aI126
aI257
aI202
aI127
aI426
aI441
aI154
aI55
aI89
aI366
aI434
aI255
aI162
aI324
aI44
aI9
aI388
aI13
aI59
aI362
aI434
aI382
aI139
aI423
aI236
aI387
aI32
aI405
aI259
aI223
aI367
aI394
aI331
aI83
aI286
aI202
aI3
aI243
aI101
aI445
aI202
aI309
aI361
aI441
aI303
aI85
aI137
aI410
aI80
aI89
aI220
aI185
aI259
aI59
aI376
aI255
aI165
aI324
aI285
aI117
aI283
aI407
aI345
aI231
aI353
aI72
aI177
aI219
aI267
aI408
aI165
aI6
aI280
aI334
aI250
aI265
aI55
aI310
aI324
aI311
aI148
aI70
aI97
aI290
aI228
aI348
aI30
aI410
aI165
aI371
aI410
aI334
aI345
aI293
aI75
aI348
aI83
aI165
aI378
aI84
aI102
aI440
aI50
aI202
aI136
aI29
aI276
aI19
aI366
aI100
aI87
aI118
aI74
aI388
aI352
aI17
aI366
aI8
aI265
aI154
aI298
aI356
aI1
aI415
aI376
aI382
aI108
aI287
aI128
aI405
aI152
aI82
aI137
aI424
aI442
aI326
aI324
aI169
aI207
aI306
aI275
aI269
aI14
aI119
aI361
aI330
aI89
aI137
aI155
aI311
aI5
aI204
aI181
aI334
aI157
aI202
aI352
aI229
aI29
aI152
aI394
aI413
aI132
aI354
aI147
aI41
aI21
aI325
aI254
aI219
aI199
aI6
aI422
aI108
aI163
aI200
aI204
aI165
aI97
aI294
aI276
aI130
aI290
aI155
aI125
aI34
aI343
aI275
aI9
aI326
aI146
aI272
aI367
aI411
aI445
aI432
aI77
aI108
aI10
aI34
aI121
aI5
aI407
aI267
aI34
aI210
aI373
aI219
aI223
aI118
aI411
aI87
aI424
aI426
aI46
aI398
aI209
aI206
aI287
aI144
aI30
aI250
aI394
aI431
aI408
aI16
aI89
aI298
aI9
aI202
aI328
aI382
aI261
aI329
aI132
aI18
aI261
aI104
aI310
aI19
aI348
aI177
aI394
aI367
aI18
aI129
aI16
aI413
aI108
aI224
aI350
aI151
aI31
aI49
aI55
aI171
aI10
aI315
aI206
aI442
aI424
aI228
aI291
aI62
aI299
aI367
aI373
aI42
aI382
aI401
aI214
aI116
aI405
aI298
aI318
aI265
aI336
aI305
aI158
aI187
aI296
aI325
aI285
aI15
aI163
aI211
aI65
aI443
aI89
aI32
aI185
aI226
aI247
aI268
aI117
aI173
aI302
aI242
aI132
aI312
aI153
aI21
aI105
aI213
aI181
aI127
aI334
aI309
aI170
aI341
aI362
aI402
aI415
aI265
aI297
aI316
aI404
aI108
aI50
aI208
aI144
aI94
aI32
aI442
aI383
aI367
aI55
aI327
aI348
aI241
aI105
aI283
aI213
aI443
aI318
aI62
aI109
aI31
aI152
aI204
aI31
aI47
aI369
aI37
aI105
aI15
a.